; Function Attrs: mustprogress nounwind uwtable
define dso_local void @_ZN5clang22BlockInvocationContext7ProfileERN4llvm16FoldingSetNodeIDE(ptr nocapture noundef nonnull readonly align 8 dereferenceable(64) %0, ptr noundef nonnull align 8 dereferenceable(144) %1) unnamed_addr #0 align 2 {
  %3 = getelementptr inbounds nuw i8, ptr %0, i64 24
  %4 = load ptr, ptr %3, align 8
  %5 = getelementptr inbounds nuw i8, ptr %0, i64 32
  %6 = load ptr, ptr %5, align 8
  %7 = getelementptr inbounds nuw i8, ptr %0, i64 48
  %8 = load ptr, ptr %7, align 8
  %9 = getelementptr inbounds nuw i8, ptr %0, i64 56
  %10 = load ptr, ptr %9, align 8
  tail call void @_ZN5clang15LocationContext13ProfileCommonERN4llvm16FoldingSetNodeIDENS0_11ContextKindEPNS_19AnalysisDeclContextEPKS0_PKv(ptr noundef nonnull align 8 dereferenceable(144) %1, i32 noundef 1, ptr noundef %4, ptr noundef %6, ptr noundef %8)
  %11 = ptrtoint ptr %10 to i64
  tail call void @_ZN4llvm16FoldingSetNodeID10AddIntegerEy(ptr noundef nonnull align 8 dereferenceable(144) %1, i64 noundef %11)
  ret void
}